; Function Attrs: null_pointer_is_valid sspstrong uwtable
define internal fastcc void @dissect_query_afp_get_vol_param(ptr noundef %0, ptr noundef readonly captures(none) %1, ptr noundef %2) unnamed_addr #1 {
  %4 = load i32, ptr @hf_afp_pad, align 4
  %5 = tail call ptr @proto_tree_add_item(ptr noundef %2, i32 noundef %4, ptr noundef %0, i32 noundef 1, i32 noundef 1, i32 noundef 0)
  %6 = tail call zeroext i16 @tvb_get_ntohs(ptr noundef %0, i32 noundef 2)
  %7 = getelementptr inbounds nuw i8, ptr %1, i64 8
  %8 = load ptr, ptr %7, align 8
  %9 = zext i16 %6 to i32
  tail call void (ptr, i32, ptr, ...) @col_append_fstr(ptr noundef %8, i32 noundef 25, ptr noundef nonnull @.str.1066, i32 noundef %9)
  %10 = load i32, ptr @hf_afp_vol_id, align 4
  %11 = tail call ptr @proto_tree_add_item(ptr noundef %2, i32 noundef %10, ptr noundef %0, i32 noundef 2, i32 noundef 2, i32 noundef 0)
  %12 = load i32, ptr @hf_afp_vol_bitmap, align 4
  %13 = load i32, ptr @ett_afp_vol_bitmap, align 4
  %14 = tail call ptr @proto_tree_add_bitmask(ptr noundef %2, ptr noundef %0, i32 noundef 4, i32 noundef %12, i32 noundef %13, ptr noundef nonnull @decode_vol_bitmap.bitmaps, i32 noundef 0)
  %15 = tail call zeroext i16 @tvb_get_ntohs(ptr noundef %0, i32 noundef 4)
  ret void
}